target datalayout = "e-m:e-p270:32:32-p271:32:32-p272:64:64-i64:64-i128:128-f80:128-n8:16:32:64-S128"
target triple = "x86_64-unknown-linux-gnu"

%"class.datalog::table_base.base" = type { %"class.datalog::tr_infrastructure<datalog::table_traits>::base_ancestor.base" }
%"class.datalog::tr_infrastructure<datalog::table_traits>::base_ancestor.base" = type <{ ptr, ptr, %"class.datalog::table_signature", i32 }>
%"class.datalog::table_signature" = type <{ %"class.datalog::tr_infrastructure<datalog::table_traits>::signature_base", i32, [4 x i8] }>
%"class.datalog::tr_infrastructure<datalog::table_traits>::signature_base" = type { %class.svector }
%class.svector = type { %class.vector }
%class.vector = type { ptr }
%class.svector.0 = type { %class.vector.1 }
%class.vector.1 = type { ptr }
%"class.datalog::table_base::iterator" = type { %class.ref }
%class.ref = type { ptr }
%"class.datalog::table_base::iterator_core.base" = type <{ ptr, i32 }>
%"class.datalog::table_base::row_interface" = type { ptr, ptr }
%"class.datalog::bitvector_table" = type { %"class.datalog::table_base.base", %class.bit_vector, i32, %class.svector.0, %class.svector.0 }
%class.bit_vector = type { i32, i32, ptr }
%"class.datalog::bitvector_table::bv_iterator" = type { %"class.datalog::table_base::iterator_core.base", ptr, i32, %"class.datalog::bitvector_table::bv_iterator::our_row" }
%"class.datalog::bitvector_table::bv_iterator::our_row" = type { %"class.datalog::table_base::caching_row_interface", ptr }
%"class.datalog::table_base::caching_row_interface" = type { %"class.datalog::table_base::row_interface", %class.svector }
%"class.datalog::table_base::iterator_core" = type <{ ptr, i32, [4 x i8] }>

@_ZTVN7datalog10table_base13row_interfaceE = external unnamed_addr constant { [9 x ptr] }, align 8

; Function Attrs: mustprogress nounwind uwtable
define linkonce_odr hidden void @_ZN7datalog10table_base13iterator_core7inc_refEv(ptr noundef nonnull align 8 dereferenceable(12) %this) #5 comdat align 2 {
entry:
  %this.addr = alloca ptr, align 8
  store ptr %this, ptr %this.addr, align 8
  %this1 = load ptr, ptr %this.addr, align 8
  %m_ref_cnt = getelementptr inbounds %"class.datalog::table_base::iterator_core", ptr %this1, i32 0, i32 1
  %0 = load i32, ptr %m_ref_cnt, align 8
  %inc = add i32 %0, 1
  store i32 %inc, ptr %m_ref_cnt, align 8
  ret void
}

; Function Attrs: mustprogress nounwind uwtable
define linkonce_odr hidden void @_ZN6vectorImLb0EjEC2Ev(ptr noundef nonnull align 8 dereferenceable(8) %this) unnamed_addr #5 comdat align 2 {
entry:
  %this.addr = alloca ptr, align 8
  store ptr %this, ptr %this.addr, align 8
  %this1 = load ptr, ptr %this.addr, align 8
  %m_data = getelementptr inbounds %class.vector, ptr %this1, i32 0, i32 0
  store ptr null, ptr %m_data, align 8
  ret void
}

; Function Attrs: mustprogress uwtable
define linkonce_odr hidden void @_ZN3refIN7datalog10table_base13iterator_coreEE7inc_refEv(ptr noundef nonnull align 8 dereferenceable(8) %this) #4 comdat align 2 {
entry:
  %this.addr = alloca ptr, align 8
  store ptr %this, ptr %this.addr, align 8
  %this1 = load ptr, ptr %this.addr, align 8
  %m_ptr = getelementptr inbounds %class.ref, ptr %this1, i32 0, i32 0
  %0 = load ptr, ptr %m_ptr, align 8
  %tobool = icmp ne ptr %0, null
  br i1 %tobool, label %if.then, label %if.end

if.then:                                          ; preds = %entry
  %m_ptr2 = getelementptr inbounds %class.ref, ptr %this1, i32 0, i32 0
  %1 = load ptr, ptr %m_ptr2, align 8
  call void @_ZN7datalog10table_base13iterator_core7inc_refEv(ptr noundef nonnull align 8 dereferenceable(12) %1)
  br label %if.end

if.end:                                           ; preds = %if.then, %entry
  ret void
}

; Function Attrs: mustprogress nounwind uwtable
define linkonce_odr hidden void @_ZN7datalog10table_base13row_interfaceD2Ev(ptr noundef nonnull align 8 dereferenceable(16) %this) unnamed_addr #5 comdat align 2 {
entry:
  %this.addr = alloca ptr, align 8
  store ptr %this, ptr %this.addr, align 8
  ret void
}

; Function Attrs: mustprogress nounwind uwtable
define linkonce_odr hidden void @_ZN7svectorImjEC2Ev(ptr noundef nonnull align 8 dereferenceable(8) %this) unnamed_addr #5 comdat align 2 {
entry:
  %this.addr = alloca ptr, align 8
  store ptr %this, ptr %this.addr, align 8
  %this1 = load ptr, ptr %this.addr, align 8
  %0 = getelementptr inbounds i8, ptr %this1, i64 0
  call void @llvm.memset.p0.i64(ptr align 8 %0, i8 0, i64 8, i1 false)
  call void @_ZN6vectorImLb0EjEC2Ev(ptr noundef nonnull align 8 dereferenceable(8) %this1) #3
  ret void
}

; Function Attrs: mustprogress nounwind uwtable
define linkonce_odr hidden void @_ZN7datalog10table_base13row_interfaceC2ERKS0_(ptr noundef nonnull align 8 dereferenceable(16) %this, ptr noundef nonnull align 8 dereferenceable(36) %parent_table) unnamed_addr #5 comdat align 2 {
entry:
  %this.addr = alloca ptr, align 8
  %parent_table.addr = alloca ptr, align 8
  store ptr %this, ptr %this.addr, align 8
  store ptr %parent_table, ptr %parent_table.addr, align 8
  %this1 = load ptr, ptr %this.addr, align 8
  store ptr getelementptr inbounds ({ [9 x ptr] }, ptr @_ZTVN7datalog10table_base13row_interfaceE, i32 0, i32 0, i32 2), ptr %this1, align 8
  %m_parent_table = getelementptr inbounds %"class.datalog::table_base::row_interface", ptr %this1, i32 0, i32 1
  %0 = load ptr, ptr %parent_table.addr, align 8
  store ptr %0, ptr %m_parent_table, align 8
  ret void
}

; Function Attrs: mustprogress uwtable
define linkonce_odr hidden void @_ZN3refIN7datalog10table_base13iterator_coreEEC2EPS2_(ptr noundef nonnull align 8 dereferenceable(8) %this, ptr noundef %ptr) unnamed_addr #4 comdat align 2 {
entry:
  %this.addr = alloca ptr, align 8
  %ptr.addr = alloca ptr, align 8
  store ptr %this, ptr %this.addr, align 8
  store ptr %ptr, ptr %ptr.addr, align 8
  %this1 = load ptr, ptr %this.addr, align 8
  %m_ptr = getelementptr inbounds %class.ref, ptr %this1, i32 0, i32 0
  %0 = load ptr, ptr %ptr.addr, align 8
  store ptr %0, ptr %m_ptr, align 8
  call void @_ZN3refIN7datalog10table_base13iterator_coreEE7inc_refEv(ptr noundef nonnull align 8 dereferenceable(8) %this1)
  ret void
}

; Function Attrs: mustprogress nounwind uwtable
define linkonce_odr hidden noundef i32 @_ZN10bit_vector12get_pos_maskEj(i32 noundef %bit_idx) #5 comdat align 2 {
entry:
  %bit_idx.addr = alloca i32, align 4
  store i32 %bit_idx, ptr %bit_idx.addr, align 4
  %0 = load i32, ptr %bit_idx.addr, align 4
  %rem = urem i32 %0, 32
  %shl = shl i32 1, %rem
  ret i32 %shl
}

; Function Attrs: mustprogress nounwind uwtable
define linkonce_odr hidden noundef i32 @_ZNK10bit_vector12get_bit_wordEj(ptr noundef nonnull align 8 dereferenceable(16) %this, i32 noundef %bit_idx) #5 comdat align 2 {
entry:
  %this.addr = alloca ptr, align 8
  %bit_idx.addr = alloca i32, align 4
  store ptr %this, ptr %this.addr, align 8
  store i32 %bit_idx, ptr %bit_idx.addr, align 4
  %this1 = load ptr, ptr %this.addr, align 8
  %m_data = getelementptr inbounds %class.bit_vector, ptr %this1, i32 0, i32 2
  %0 = load ptr, ptr %m_data, align 8
  %1 = load i32, ptr %bit_idx.addr, align 4
  %div = udiv i32 %1, 32
  %idxprom = zext i32 %div to i64
  %arrayidx = getelementptr inbounds i32, ptr %0, i64 %idxprom
  %2 = load i32, ptr %arrayidx, align 4
  ret i32 %2
}

; Function Attrs: mustprogress uwtable
define linkonce_odr hidden void @_ZN7datalog10table_base21caching_row_interfaceC2ERKS0_(ptr noundef nonnull align 8 dereferenceable(24) %this, ptr noundef nonnull align 8 dereferenceable(36) %parent) unnamed_addr #4 comdat align 2 personality ptr @__gxx_personality_v0 {
entry:
  %this.addr = alloca ptr, align 8
  %parent.addr = alloca ptr, align 8
  %exn.slot = alloca ptr, align 8
  %ehselector.slot = alloca i32, align 4
  store ptr %this, ptr %this.addr, align 8
  store ptr %parent, ptr %parent.addr, align 8
  %this1 = load ptr, ptr %this.addr, align 8
  %0 = load ptr, ptr %parent.addr, align 8
  call void @_ZN7datalog10table_base13row_interfaceC2ERKS0_(ptr noundef nonnull align 8 dereferenceable(16) %this1, ptr noundef nonnull align 8 dereferenceable(36) %0)
  store ptr getelementptr inbounds ({ [9 x ptr] }, ptr @_ZTVN7datalog10table_base21caching_row_interfaceE, i32 0, i32 0, i32 2), ptr %this1, align 8
  %m_current = getelementptr inbounds %"class.datalog::table_base::caching_row_interface", ptr %this1, i32 0, i32 1
  invoke void @_ZN7svectorImjEC2Ev(ptr noundef nonnull align 8 dereferenceable(8) %m_current)
          to label %invoke.cont unwind label %lpad

invoke.cont:                                      ; preds = %entry
  ret void

lpad:                                             ; preds = %entry
  %1 = landingpad { ptr, i32 }
          cleanup
  %2 = extractvalue { ptr, i32 } %1, 0
  store ptr %2, ptr %exn.slot, align 8
  %3 = extractvalue { ptr, i32 } %1, 1
  store i32 %3, ptr %ehselector.slot, align 4
  call void @_ZN7datalog10table_base13row_interfaceD2Ev(ptr noundef nonnull align 8 dereferenceable(16) %this1) #3
  br label %eh.resume

eh.resume:                                        ; preds = %lpad
  %exn = load ptr, ptr %exn.slot, align 8
  %sel = load i32, ptr %ehselector.slot, align 4
  %lpad.val = insertvalue { ptr, i32 } poison, ptr %exn, 0
  %lpad.val2 = insertvalue { ptr, i32 } %lpad.val, i32 %sel, 1
  resume { ptr, i32 } %lpad.val2
}

; Function Attrs: mustprogress uwtable
define linkonce_odr hidden void @_ZN7datalog10table_base8iteratorC2EPNS0_13iterator_coreE(ptr noundef nonnull align 8 dereferenceable(8) %this, ptr noundef %core) unnamed_addr #4 comdat align 2 {
entry:
  %this.addr = alloca ptr, align 8
  %core.addr = alloca ptr, align 8
  store ptr %this, ptr %this.addr, align 8
  store ptr %core, ptr %core.addr, align 8
  %this1 = load ptr, ptr %this.addr, align 8
  %m_core = getelementptr inbounds %"class.datalog::table_base::iterator", ptr %this1, i32 0, i32 0
  %0 = load ptr, ptr %core.addr, align 8
  call void @_ZN3refIN7datalog10table_base13iterator_coreEEC2EPS2_(ptr noundef nonnull align 8 dereferenceable(8) %m_core, ptr noundef %0)
  ret void
}

; Function Attrs: mustprogress nounwind uwtable
define linkonce_odr hidden void @_ZN7datalog10table_base13iterator_coreD2Ev(ptr noundef nonnull align 8 dereferenceable(12) %this) unnamed_addr #5 comdat align 2 {
entry:
  %this.addr = alloca ptr, align 8
  store ptr %this, ptr %this.addr, align 8
  ret void
}

; Function Attrs: mustprogress uwtable
define linkonce_odr hidden noundef zeroext i1 @_ZNK10bit_vector3getEj(ptr noundef nonnull align 8 dereferenceable(16) %this, i32 noundef %bit_idx) #4 comdat align 2 {
entry:
  %this.addr = alloca ptr, align 8
  %bit_idx.addr = alloca i32, align 4
  %r = alloca i8, align 1
  store ptr %this, ptr %this.addr, align 8
  store i32 %bit_idx, ptr %bit_idx.addr, align 4
  %this1 = load ptr, ptr %this.addr, align 8
  %0 = load i32, ptr %bit_idx.addr, align 4
  %call = call noundef i32 @_ZNK10bit_vector12get_bit_wordEj(ptr noundef nonnull align 8 dereferenceable(16) %this1, i32 noundef %0)
  %1 = load i32, ptr %bit_idx.addr, align 4
  %call2 = call noundef i32 @_ZN10bit_vector12get_pos_maskEj(i32 noundef %1)
  %and = and i32 %call, %call2
  %cmp = icmp ne i32 %and, 0
  %frombool = zext i1 %cmp to i8
  store i8 %frombool, ptr %r, align 1
  %2 = load i8, ptr %r, align 1
  %tobool = trunc i8 %2 to i1
  ret i1 %tobool
}

; Function Attrs: mustprogress uwtable
define linkonce_odr hidden void @_ZN7datalog15bitvector_table11bv_iterator7our_rowC2ERKS1_(ptr noundef nonnull align 8 dereferenceable(32) %this, ptr noundef nonnull align 8 dereferenceable(64) %p) unnamed_addr #4 comdat align 2 {
entry:
  %this.addr = alloca ptr, align 8
  %p.addr = alloca ptr, align 8
  store ptr %this, ptr %this.addr, align 8
  store ptr %p, ptr %p.addr, align 8
  %this1 = load ptr, ptr %this.addr, align 8
  %0 = load ptr, ptr %p.addr, align 8
  %m_bv = getelementptr inbounds %"class.datalog::bitvector_table::bv_iterator", ptr %0, i32 0, i32 1
  %1 = load ptr, ptr %m_bv, align 8
  call void @_ZN7datalog10table_base21caching_row_interfaceC2ERKS0_(ptr noundef nonnull align 8 dereferenceable(24) %this1, ptr noundef nonnull align 8 dereferenceable(36) %1)
  store ptr getelementptr inbounds ({ [9 x ptr] }, ptr @_ZTVN7datalog15bitvector_table11bv_iterator7our_rowE, i32 0, i32 0, i32 2), ptr %this1, align 8
  %m_parent = getelementptr inbounds %"class.datalog::bitvector_table::bv_iterator::our_row", ptr %this1, i32 0, i32 1
  %2 = load ptr, ptr %p.addr, align 8
  store ptr %2, ptr %m_parent, align 8
  ret void
}

; Function Attrs: mustprogress nounwind uwtable
define linkonce_odr hidden noundef i32 @_ZNK10bit_vector4sizeEv(ptr noundef nonnull align 8 dereferenceable(16) %this) #5 comdat align 2 {
entry:
  %this.addr = alloca ptr, align 8
  store ptr %this, ptr %this.addr, align 8
  %this1 = load ptr, ptr %this.addr, align 8
  %m_num_bits = getelementptr inbounds %class.bit_vector, ptr %this1, i32 0, i32 0
  %0 = load i32, ptr %m_num_bits, align 8
  ret i32 %0
}

; Function Attrs: mustprogress nounwind uwtable
define linkonce_odr hidden void @_ZN7datalog10table_base13iterator_coreC2Ev(ptr noundef nonnull align 8 dereferenceable(12) %this) unnamed_addr #5 comdat align 2 {
entry:
  %this.addr = alloca ptr, align 8
  store ptr %this, ptr %this.addr, align 8
  %this1 = load ptr, ptr %this.addr, align 8
  store ptr getelementptr inbounds ({ [8 x ptr] }, ptr @_ZTVN7datalog10table_base13iterator_coreE, i32 0, i32 0, i32 2), ptr %this1, align 8
  %m_ref_cnt = getelementptr inbounds %"class.datalog::table_base::iterator_core", ptr %this1, i32 0, i32 1
  store i32 0, ptr %m_ref_cnt, align 8
  ret void
}

; Function Attrs: mustprogress uwtable
define linkonce_odr hidden void @_ZN7datalog10table_base11mk_iteratorEPNS0_13iterator_coreE(ptr noalias sret(%"class.datalog::table_base::iterator") align 8 %agg.result, ptr noundef %core) #4 comdat align 2 {
entry:
  %result.ptr = alloca ptr, align 8
  %core.addr = alloca ptr, align 8
  store ptr %agg.result, ptr %result.ptr, align 8
  store ptr %core, ptr %core.addr, align 8
  %0 = load ptr, ptr %core.addr, align 8
  call void @_ZN7datalog10table_base8iteratorC2EPNS0_13iterator_coreE(ptr noundef nonnull align 8 dereferenceable(8) %agg.result, ptr noundef %0)
  ret void
}

; Function Attrs: mustprogress uwtable
define linkonce_odr hidden void @_ZN7datalog15bitvector_table11bv_iteratorC2ERKS0_b(ptr noundef nonnull align 8 dereferenceable(64) %this, ptr noundef nonnull align 8 dereferenceable(80) %bv, i1 noundef zeroext %end) unnamed_addr #4 comdat align 2 personality ptr @__gxx_personality_v0 {
entry:
  %this.addr = alloca ptr, align 8
  %bv.addr = alloca ptr, align 8
  %end.addr = alloca i8, align 1
  %exn.slot = alloca ptr, align 8
  %ehselector.slot = alloca i32, align 4
  store ptr %this, ptr %this.addr, align 8
  store ptr %bv, ptr %bv.addr, align 8
  %frombool = zext i1 %end to i8
  store i8 %frombool, ptr %end.addr, align 1
  %this1 = load ptr, ptr %this.addr, align 8
  call void @_ZN7datalog10table_base13iterator_coreC2Ev(ptr noundef nonnull align 8 dereferenceable(12) %this1)
  store ptr getelementptr inbounds ({ [8 x ptr] }, ptr @_ZTVN7datalog15bitvector_table11bv_iteratorE, i32 0, i32 0, i32 2), ptr %this1, align 8
  %m_bv = getelementptr inbounds %"class.datalog::bitvector_table::bv_iterator", ptr %this1, i32 0, i32 1
  %0 = load ptr, ptr %bv.addr, align 8
  store ptr %0, ptr %m_bv, align 8
  %m_offset = getelementptr inbounds %"class.datalog::bitvector_table::bv_iterator", ptr %this1, i32 0, i32 2
  %1 = load i8, ptr %end.addr, align 1
  %tobool = trunc i8 %1 to i1
  br i1 %tobool, label %cond.true, label %cond.false

cond.true:                                        ; preds = %entry
  %m_bv2 = getelementptr inbounds %"class.datalog::bitvector_table::bv_iterator", ptr %this1, i32 0, i32 1
  %2 = load ptr, ptr %m_bv2, align 8
  %m_bv3 = getelementptr inbounds %"class.datalog::bitvector_table", ptr %2, i32 0, i32 1
  %call = call noundef i32 @_ZNK10bit_vector4sizeEv(ptr noundef nonnull align 8 dereferenceable(16) %m_bv3)
  br label %cond.end

cond.false:                                       ; preds = %entry
  br label %cond.end

cond.end:                                         ; preds = %cond.false, %cond.true
  %cond = phi i32 [ %call, %cond.true ], [ 0, %cond.false ]
  store i32 %cond, ptr %m_offset, align 8
  %m_row_obj = getelementptr inbounds %"class.datalog::bitvector_table::bv_iterator", ptr %this1, i32 0, i32 3
  invoke void @_ZN7datalog15bitvector_table11bv_iterator7our_rowC2ERKS1_(ptr noundef nonnull align 8 dereferenceable(32) %m_row_obj, ptr noundef nonnull align 8 dereferenceable(64) %this1)
          to label %invoke.cont unwind label %lpad

invoke.cont:                                      ; preds = %cond.end
  %vtable = load ptr, ptr %this1, align 8
  %vfn = getelementptr inbounds ptr, ptr %vtable, i64 2
  %3 = load ptr, ptr %vfn, align 8
  %call6 = invoke noundef zeroext i1 %3(ptr noundef nonnull align 8 dereferenceable(64) %this1)
          to label %invoke.cont5 unwind label %lpad4

invoke.cont5:                                     ; preds = %invoke.cont
  br i1 %call6, label %if.end, label %land.lhs.true

land.lhs.true:                                    ; preds = %invoke.cont5
  %m_bv7 = getelementptr inbounds %"class.datalog::bitvector_table::bv_iterator", ptr %this1, i32 0, i32 1
  %4 = load ptr, ptr %m_bv7, align 8
  %m_bv8 = getelementptr inbounds %"class.datalog::bitvector_table", ptr %4, i32 0, i32 1
  %m_offset9 = getelementptr inbounds %"class.datalog::bitvector_table::bv_iterator", ptr %this1, i32 0, i32 2
  %5 = load i32, ptr %m_offset9, align 8
  %call11 = invoke noundef zeroext i1 @_ZNK10bit_vector3getEj(ptr noundef nonnull align 8 dereferenceable(16) %m_bv8, i32 noundef %5)
          to label %invoke.cont10 unwind label %lpad4

invoke.cont10:                                    ; preds = %land.lhs.true
  br i1 %call11, label %if.end, label %if.then

if.then:                                          ; preds = %invoke.cont10
  %vtable12 = load ptr, ptr %this1, align 8
  %vfn13 = getelementptr inbounds ptr, ptr %vtable12, i64 4
  %6 = load ptr, ptr %vfn13, align 8
  invoke void %6(ptr noundef nonnull align 8 dereferenceable(64) %this1)
          to label %invoke.cont14 unwind label %lpad4

invoke.cont14:                                    ; preds = %if.then
  br label %if.end

lpad:                                             ; preds = %cond.end
  %7 = landingpad { ptr, i32 }
          cleanup
  %8 = extractvalue { ptr, i32 } %7, 0
  store ptr %8, ptr %exn.slot, align 8
  %9 = extractvalue { ptr, i32 } %7, 1
  store i32 %9, ptr %ehselector.slot, align 4
  br label %ehcleanup

lpad4:                                            ; preds = %if.then, %land.lhs.true, %invoke.cont
  %10 = landingpad { ptr, i32 }
          cleanup
  %11 = extractvalue { ptr, i32 } %10, 0
  store ptr %11, ptr %exn.slot, align 8
  %12 = extractvalue { ptr, i32 } %10, 1
  store i32 %12, ptr %ehselector.slot, align 4
  call void @_ZN7datalog15bitvector_table11bv_iterator7our_rowD2Ev(ptr noundef nonnull align 8 dereferenceable(32) %m_row_obj) #3
  br label %ehcleanup

if.end:                                           ; preds = %invoke.cont14, %invoke.cont10, %invoke.cont5
  ret void

ehcleanup:                                        ; preds = %lpad4, %lpad
  call void @_ZN7datalog10table_base13iterator_coreD2Ev(ptr noundef nonnull align 8 dereferenceable(12) %this1) #3
  br label %eh.resume

eh.resume:                                        ; preds = %ehcleanup
  %exn = load ptr, ptr %exn.slot, align 8
  %sel = load i32, ptr %ehselector.slot, align 4
  %lpad.val = insertvalue { ptr, i32 } poison, ptr %exn, 0
  %lpad.val15 = insertvalue { ptr, i32 } %lpad.val, i32 %sel, 1
  resume { ptr, i32 } %lpad.val15
}

; Function Attrs: mustprogress uwtable
define hidden void @_ZNK7datalog15bitvector_table5beginEv(ptr noalias sret(%"class.datalog::table_base::iterator") align 8 %agg.result, ptr noundef nonnull align 8 dereferenceable(80) %this) unnamed_addr #4 align 2 {
entry:
  %result.ptr = alloca ptr, align 8
  %this.addr = alloca ptr, align 8
  store ptr %agg.result, ptr %result.ptr, align 8
  store ptr %this, ptr %this.addr, align 8
  %this1 = load ptr, ptr %this.addr, align 8
  %call = call noalias noundef ptr @_ZN6memory8allocateEm(i64 noundef 64)
  call void @_ZN7datalog15bitvector_table11bv_iteratorC2ERKS0_b(ptr noundef nonnull align 8 dereferenceable(64) %call, ptr noundef nonnull align 8 dereferenceable(80) %this1, i1 noundef zeroext false)
  call void @_ZN7datalog10table_base11mk_iteratorEPNS0_13iterator_coreE(ptr sret(%"class.datalog::table_base::iterator") align 8 %agg.result, ptr noundef %call)
  ret void
}