; Function Attrs: mustprogress uwtable
define hidden void @_ZNK7datalog15bitvector_table5beginEv(ptr noalias nocapture writeonly sret(%"class.datalog::table_base::iterator") align 8 %agg.result, ptr noundef nonnull align 8 dereferenceable(80) %this) unnamed_addr #3 align 2 personality ptr @__gxx_personality_v0 {
entry:
  %call = tail call noalias noundef ptr @_ZN6memory8allocateEm(i64 noundef 64)
  %m_ref_cnt.i.i = getelementptr inbounds i8, ptr %call, i64 8
  store i32 0, ptr %m_ref_cnt.i.i, align 8
  store ptr getelementptr inbounds ({ [8 x ptr] }, ptr @_ZTVN7datalog15bitvector_table11bv_iteratorE, i64 0, i32 0, i64 2), ptr %call, align 8
  %m_bv.i = getelementptr inbounds i8, ptr %call, i64 16
  store ptr %this, ptr %m_bv.i, align 8
  %m_offset.i = getelementptr inbounds i8, ptr %call, i64 24
  %m_bv3.i = getelementptr inbounds i8, ptr %this, i64 40
  store i32 0, ptr %m_offset.i, align 8
  %m_row_obj.i = getelementptr inbounds i8, ptr %call, i64 32
  %m_parent_table.i.i.i.i = getelementptr inbounds i8, ptr %call, i64 40
  store ptr %this, ptr %m_parent_table.i.i.i.i, align 8
  %m_current.i.i.i = getelementptr inbounds i8, ptr %call, i64 48
  store ptr null, ptr %m_current.i.i.i, align 8
  store ptr getelementptr inbounds ({ [9 x ptr] }, ptr @_ZTVN7datalog15bitvector_table11bv_iterator7our_rowE, i64 0, i32 0, i64 2), ptr %m_row_obj.i, align 8
  %m_parent.i.i = getelementptr inbounds i8, ptr %call, i64 56
  store ptr %call, ptr %m_parent.i.i, align 8
  %0 = load i32, ptr %m_bv3.i, align 8
  %cmp.i.i = icmp eq i32 %0, 0
  br i1 %cmp.i.i, label %_ZN7datalog10table_base11mk_iteratorEPNS0_13iterator_coreE.exit, label %invoke.cont10.i

invoke.cont10.i:                                  ; preds = %entry
  %m_data.i.i.i = getelementptr inbounds i8, ptr %this, i64 48
  %1 = load ptr, ptr %m_data.i.i.i, align 8
  %2 = load i32, ptr %1, align 4
  %and.i.i = and i32 %2, 1
  %cmp.i.not.i = icmp eq i32 %and.i.i, 0
  br i1 %cmp.i.not.i, label %while.cond.i.i, label %_ZN7datalog10table_base11mk_iteratorEPNS0_13iterator_coreE.exit

while.cond.i.i:                                   ; preds = %invoke.cont10.i, %land.rhs.i.i
  %storemerge.in.i.i = phi i32 [ %5, %land.rhs.i.i ], [ 0, %invoke.cont10.i ]
  %storemerge.i.i = add i32 %storemerge.in.i.i, 1
  store i32 %storemerge.i.i, ptr %m_offset.i, align 8
  %vtable.i.i = load ptr, ptr %call, align 8
  %vfn.i.i = getelementptr inbounds i8, ptr %vtable.i.i, i64 16
  %3 = load ptr, ptr %vfn.i.i, align 8
  %call.i3.i = invoke noundef zeroext i1 %3(ptr noundef nonnull align 8 dereferenceable(64) %call)
          to label %call.i.noexc.i unwind label %lpad4.i

call.i.noexc.i:                                   ; preds = %while.cond.i.i
  br i1 %call.i3.i, label %while.end.i.i, label %land.rhs.i.i

land.rhs.i.i:                                     ; preds = %call.i.noexc.i
  %4 = load ptr, ptr %m_bv.i, align 8
  %5 = load i32, ptr %m_offset.i, align 8
  %m_data.i.i.i.i = getelementptr inbounds i8, ptr %4, i64 48
  %6 = load ptr, ptr %m_data.i.i.i.i, align 8
  %div1.i.i.i.i = lshr i32 %5, 5
  %idxprom.i.i.i.i = zext nneg i32 %div1.i.i.i.i to i64
  %arrayidx.i.i.i.i = getelementptr inbounds i32, ptr %6, i64 %idxprom.i.i.i.i
  %7 = load i32, ptr %arrayidx.i.i.i.i, align 4
  %rem.i.i.i.i = and i32 %5, 31
  %shl.i.i.i.i = shl nuw i32 1, %rem.i.i.i.i
  %and.i.i.i = and i32 %7, %shl.i.i.i.i
  %cmp.i.not.i.i = icmp eq i32 %and.i.i.i, 0
  br i1 %cmp.i.not.i.i, label %while.cond.i.i, label %while.end.i.i, !llvm.loop !19

while.end.i.i:                                    ; preds = %land.rhs.i.i, %call.i.noexc.i
  %8 = load ptr, ptr %m_current.i.i.i, align 8
  %tobool.not.i.i.i.i = icmp eq ptr %8, null
  br i1 %tobool.not.i.i.i.i, label %_ZN7datalog10table_base11mk_iteratorEPNS0_13iterator_coreE.exit, label %if.then.i.i.i.i

if.then.i.i.i.i:                                  ; preds = %while.end.i.i
  %arrayidx.i.i1.i.i = getelementptr inbounds i8, ptr %8, i64 -4
  store i32 0, ptr %arrayidx.i.i1.i.i, align 4
  br label %_ZN7datalog10table_base11mk_iteratorEPNS0_13iterator_coreE.exit

lpad4.i:                                          ; preds = %while.cond.i.i
  %9 = landingpad { ptr, i32 }
          cleanup
  tail call void @_ZN7datalog15bitvector_table11bv_iterator7our_rowD2Ev(ptr noundef nonnull align 8 dereferenceable(32) %m_row_obj.i) #19
  resume { ptr, i32 } %9

_ZN7datalog10table_base11mk_iteratorEPNS0_13iterator_coreE.exit: ; preds = %entry, %invoke.cont10.i, %while.end.i.i, %if.then.i.i.i.i
  tail call void @llvm.experimental.noalias.scope.decl(metadata !20)
  store ptr %call, ptr %agg.result, align 8, !alias.scope !20
  %10 = load i32, ptr %m_ref_cnt.i.i, align 8, !noalias !20
  %inc.i.i.i.i.i = add i32 %10, 1
  store i32 %inc.i.i.i.i.i, ptr %m_ref_cnt.i.i, align 8, !noalias !20
  ret void
}